; Function Attrs: mustprogress nofree norecurse nosync nounwind willreturn memory(read, inaccessiblemem: none) uwtable
define dso_local noundef zeroext i1 @_ZNK9Statement8in_blockEPK5Block(ptr nocapture noundef nonnull readonly align 8 dereferenceable(32) %0, ptr noundef readnone %1) local_unnamed_addr #7 align 2 {
  br label %3

3:                                                ; preds = %3, %2
  %.pn = phi ptr [ %0, %2 ], [ %.0, %3 ]
  %.0.in = getelementptr inbounds i8, ptr %.pn, i64 24
  %.0 = load ptr, ptr %.0.in, align 8
  %.not = icmp ne ptr %.0, null
  %4 = icmp ne ptr %.0, %1
  %or.cond.not = and i1 %4, %.not
  br i1 %or.cond.not, label %3, label %5, !llvm.loop !22

5:                                                ; preds = %3
  ret i1 %.not
}